target datalayout = "e-m:e-p270:32:32-p271:32:32-p272:64:64-i64:64-i128:128-f80:128-n8:16:32:64-S128"
target triple = "x86_64-pc-linux-gnu"

%struct.H5EA_dblock_t = type { %struct.H5C_cache_entry_t, i64, ptr, ptr, i64, i64, i8, ptr, ptr, i64, i64 }
%struct.H5C_cache_entry_t = type { ptr, i64, i64, ptr, i8, ptr, i8, i8, i8, i8, i32, i8, i8, i8, i8, i8, i32, ptr, i32, i32, i32, i32, i32, i8, i8, ptr, ptr, ptr, ptr, ptr, ptr, i8, i32, i8, i64, ptr, i64, i64, i32, i8, i32, i32, i8, ptr, ptr, ptr }

@H5EA_init_g = external global i8, align 1
@H5_libterm_g = external global i8, align 1
@.str = private unnamed_addr constant [104 x i8] c"generated/home/dtcxzyw/WorkSpace/Projects/compilers/llvm-opt-benchmark/bench/hdf5/hdf5/src/H5EAdblock.c\00", align 1
@H5E_EARRAY_g = external global i64, align 8
@H5E_CANTFREE_g = external global i64, align 8
@__func__.H5EA__dblock_dest = private unnamed_addr constant [18 x i8] c"H5EA__dblock_dest\00", align 1
@.str.14 = private unnamed_addr constant [58 x i8] c"unable to free extensible array data block element buffer\00", align 1
@H5E_CANTDEC_g = external global i64, align 8
@.str.15 = private unnamed_addr constant [55 x i8] c"can't decrement reference count on shared array header\00", align 1
@H5_H5EA_dblock_t_reg_free_list = internal global { i8, [3 x i8], i32, i32, [4 x i8], ptr, i64, ptr } { i8 0, [3 x i8] zeroinitializer, i32 0, i32 0, [4 x i8] zeroinitializer, ptr @.str.16, i64 328, ptr null }, align 8

; Function Attrs: nounwind uwtable
define i32 @H5EA__dblock_dest(ptr noundef %0) #0 {
  %2 = alloca ptr, align 8
  %3 = alloca i32, align 4
  %4 = alloca i8, align 1
  store ptr %0, ptr %2, align 8, !tbaa !11
  call void @llvm.lifetime.start.p0(i64 4, ptr %3) #5
  store i32 0, ptr %3, align 4, !tbaa !43
  call void @llvm.lifetime.start.p0(i64 1, ptr %4) #5
  store i8 0, ptr %4, align 1, !tbaa !13
  %5 = load i8, ptr @H5EA_init_g, align 1, !tbaa !13, !range !15, !noundef !16
  %6 = trunc i8 %5 to i1
  br i1 %6, label %11, label %7

7:                                                ; preds = %1
  %8 = load i8, ptr @H5_libterm_g, align 1, !tbaa !13, !range !15, !noundef !16
  %9 = trunc i8 %8 to i1
  %10 = xor i1 %9, true
  br label %11

11:                                               ; preds = %7, %1
  %12 = phi i1 [ true, %1 ], [ %10, %7 ]
  %13 = xor i1 %12, true
  %14 = xor i1 %13, true
  %15 = zext i1 %14 to i32
  %16 = sext i32 %15 to i64
  %17 = call i64 @llvm.expect.i64(i64 %16, i64 1)
  %18 = icmp ne i64 %17, 0
  br i1 %18, label %19, label %102

19:                                               ; preds = %11
  %20 = load ptr, ptr %2, align 8, !tbaa !11
  %21 = getelementptr inbounds nuw %struct.H5EA_dblock_t, ptr %20, i32 0, i32 3
  %22 = load ptr, ptr %21, align 8, !tbaa !17
  %23 = icmp ne ptr %22, null
  br i1 %23, label %24, label %98

24:                                               ; preds = %19
  %25 = load ptr, ptr %2, align 8, !tbaa !11
  %26 = getelementptr inbounds nuw %struct.H5EA_dblock_t, ptr %25, i32 0, i32 2
  %27 = load ptr, ptr %26, align 8, !tbaa !42
  %28 = icmp ne ptr %27, null
  br i1 %28, label %29, label %70

29:                                               ; preds = %24
  %30 = load ptr, ptr %2, align 8, !tbaa !11
  %31 = getelementptr inbounds nuw %struct.H5EA_dblock_t, ptr %30, i32 0, i32 10
  %32 = load i64, ptr %31, align 8, !tbaa !41
  %33 = icmp ne i64 %32, 0
  br i1 %33, label %70, label %34

34:                                               ; preds = %29
  %35 = load ptr, ptr %2, align 8, !tbaa !11
  %36 = getelementptr inbounds nuw %struct.H5EA_dblock_t, ptr %35, i32 0, i32 3
  %37 = load ptr, ptr %36, align 8, !tbaa !17
  %38 = load ptr, ptr %2, align 8, !tbaa !11
  %39 = getelementptr inbounds nuw %struct.H5EA_dblock_t, ptr %38, i32 0, i32 9
  %40 = load i64, ptr %39, align 8, !tbaa !29
  %41 = load ptr, ptr %2, align 8, !tbaa !11
  %42 = getelementptr inbounds nuw %struct.H5EA_dblock_t, ptr %41, i32 0, i32 2
  %43 = load ptr, ptr %42, align 8, !tbaa !42
  %44 = call i32 @H5EA__hdr_free_elmts(ptr noundef %37, i64 noundef %40, ptr noundef %43)
  %45 = icmp slt i32 %44, 0
  br i1 %45, label %46, label %65

46:                                               ; preds = %34
  br label %47

47:                                               ; preds = %46
  br label %48

48:                                               ; preds = %47
  br label %49

49:                                               ; preds = %48
  %50 = load i64, ptr @H5E_EARRAY_g, align 8, !tbaa !9
  %51 = load i64, ptr @H5E_CANTFREE_g, align 8, !tbaa !9
  %52 = call i32 (ptr, ptr, i32, i64, i64, ptr, ...) @H5E_printf_stack(ptr noundef @.str, ptr noundef @__func__.H5EA__dblock_dest, i32 noundef 449, i64 noundef %50, i64 noundef %51, ptr noundef @.str.14)
  br label %53

53:                                               ; preds = %49
  br label %54

54:                                               ; preds = %53
  store i8 1, ptr %4, align 1, !tbaa !13
  %55 = load i8, ptr %4, align 1, !tbaa !13, !range !15, !noundef !16
  %56 = trunc i8 %55 to i1
  %57 = zext i1 %56 to i8
  store i8 %57, ptr %4, align 1, !tbaa !13
  br label %58

58:                                               ; preds = %54
  br label %59

59:                                               ; preds = %58
  br label %60

60:                                               ; preds = %59
  store i32 -1, ptr %3, align 4, !tbaa !43
  br label %101

61:                                               ; No predecessors!
  br label %62

62:                                               ; preds = %61
  br label %63

63:                                               ; preds = %62
  br label %64

64:                                               ; preds = %63
  br label %65

65:                                               ; preds = %64, %34
  %66 = load ptr, ptr %2, align 8, !tbaa !11
  %67 = getelementptr inbounds nuw %struct.H5EA_dblock_t, ptr %66, i32 0, i32 2
  store ptr null, ptr %67, align 8, !tbaa !42
  %68 = load ptr, ptr %2, align 8, !tbaa !11
  %69 = getelementptr inbounds nuw %struct.H5EA_dblock_t, ptr %68, i32 0, i32 9
  store i64 0, ptr %69, align 8, !tbaa !29
  br label %70

70:                                               ; preds = %65, %29, %24
  %71 = load ptr, ptr %2, align 8, !tbaa !11
  %72 = getelementptr inbounds nuw %struct.H5EA_dblock_t, ptr %71, i32 0, i32 3
  %73 = load ptr, ptr %72, align 8, !tbaa !17
  %74 = call i32 @H5EA__hdr_decr(ptr noundef %73)
  %75 = icmp slt i32 %74, 0
  br i1 %75, label %76, label %95

76:                                               ; preds = %70
  br label %77

77:                                               ; preds = %76
  br label %78

78:                                               ; preds = %77
  br label %79

79:                                               ; preds = %78
  %80 = load i64, ptr @H5E_EARRAY_g, align 8, !tbaa !9
  %81 = load i64, ptr @H5E_CANTDEC_g, align 8, !tbaa !9
  %82 = call i32 (ptr, ptr, i32, i64, i64, ptr, ...) @H5E_printf_stack(ptr noundef @.str, ptr noundef @__func__.H5EA__dblock_dest, i32 noundef 457, i64 noundef %80, i64 noundef %81, ptr noundef @.str.15)
  br label %83

83:                                               ; preds = %79
  br label %84

84:                                               ; preds = %83
  store i8 1, ptr %4, align 1, !tbaa !13
  %85 = load i8, ptr %4, align 1, !tbaa !13, !range !15, !noundef !16
  %86 = trunc i8 %85 to i1
  %87 = zext i1 %86 to i8
  store i8 %87, ptr %4, align 1, !tbaa !13
  br label %88

88:                                               ; preds = %84
  br label %89

89:                                               ; preds = %88
  br label %90

90:                                               ; preds = %89
  store i32 -1, ptr %3, align 4, !tbaa !43
  br label %101

91:                                               ; No predecessors!
  br label %92

92:                                               ; preds = %91
  br label %93

93:                                               ; preds = %92
  br label %94

94:                                               ; preds = %93
  br label %95

95:                                               ; preds = %94, %70
  %96 = load ptr, ptr %2, align 8, !tbaa !11
  %97 = getelementptr inbounds nuw %struct.H5EA_dblock_t, ptr %96, i32 0, i32 3
  store ptr null, ptr %97, align 8, !tbaa !17
  br label %98

98:                                               ; preds = %95, %19
  %99 = load ptr, ptr %2, align 8, !tbaa !11
  %100 = call ptr @H5FL_reg_free(ptr noundef @H5_H5EA_dblock_t_reg_free_list, ptr noundef %99)
  store ptr %100, ptr %2, align 8, !tbaa !11
  br label %101

101:                                              ; preds = %98, %90, %60
  br label %102

102:                                              ; preds = %101, %11
  %103 = load i32, ptr %3, align 4, !tbaa !43
  call void @llvm.lifetime.end.p0(i64 1, ptr %4) #5
  call void @llvm.lifetime.end.p0(i64 4, ptr %3) #5
  ret i32 %103
}